; Function Attrs: nounwind uwtable
define internal noundef zeroext i1 @HIDAPI_DriverSteamHori_OpenJoystick(ptr noundef %0, ptr noundef initializes((68, 72), (96, 100), (112, 116)) %1) #0 {
  %3 = getelementptr inbounds nuw i8, ptr %0, i64 112
  %4 = load ptr, ptr %3, align 8
  tail call void @SDL_AssertJoysticksLocked() #9
  tail call void @llvm.memset.p0.i64(ptr noundef nonnull align 8 dereferenceable(64) %4, i8 0, i64 64, i1 false)
  %5 = getelementptr inbounds nuw i8, ptr %1, i64 112
  store i32 18, ptr %5, align 8
  %6 = getelementptr inbounds nuw i8, ptr %1, i64 68
  store i32 6, ptr %6, align 4
  %7 = getelementptr inbounds nuw i8, ptr %1, i64 96
  store i32 1, ptr %7, align 8
  %8 = getelementptr inbounds nuw i8, ptr %0, i64 34
  %9 = load i16, ptr %8, align 2
  %10 = icmp eq i16 %9, 406
  %11 = getelementptr inbounds nuw i8, ptr %4, i64 76
  %12 = zext i1 %10 to i8
  store i8 %12, ptr %11, align 4
  br i1 %10, label %13, label %20

13:                                               ; preds = %2
  %14 = getelementptr inbounds nuw i8, ptr %0, i64 40
  %15 = load ptr, ptr %14, align 8
  %.not = icmp eq ptr %15, null
  br i1 %.not, label %.thread, label %16

16:                                               ; preds = %13
  %17 = tail call noalias ptr @SDL_strdup_REAL(ptr noundef nonnull %15) #9
  %18 = getelementptr inbounds nuw i8, ptr %1, i64 24
  store ptr %17, ptr %18, align 8
  %19 = getelementptr inbounds nuw i8, ptr %4, i64 77
  store i8 0, ptr %19, align 1
  br label %.thread

20:                                               ; preds = %2
  %21 = tail call zeroext i1 @HIDAPI_DriverSteamHori_UpdateDevice(ptr noundef nonnull %0)
  br label %.thread

.thread:                                          ; preds = %13, %20, %16
  tail call void @SDL_PrivateJoystickAddSensor(ptr noundef nonnull %1, i32 noundef 2, float noundef 2.500000e+02) #9
  tail call void @SDL_PrivateJoystickAddSensor(ptr noundef nonnull %1, i32 noundef 1, float noundef 2.500000e+02) #9
  ret i1 true
}